(dp0
S'psessionid'
p1
V8368046764001d636f6e6e7365727665725f77656271714031302e3133392e372e313630000029cc00001477036e04008737d4b56d0000000a40516f5857675a3374686d00000028d0e7fd3bb58fe5ea2ba8b0c05f430cf1200974d90215b2898ac79b71046440f481fc52ce35cad241
p2
sS'vfwebqq'
p3
Vd0e7fd3bb58fe5ea2ba8b0c05f430cf1200974d90215b2898ac79b71046440f481fc52ce35cad241
p4
sS'selfuin'
p5
I3050583943
sS'client_id'
p6
I432976
sS'ptwebqq'
p7
S'9bda94f50ffeb83a437a05ab9d17533922f4a86543345c0bef471975b74cded8'
p8
s.