(dp0
S'psessionid'
p1
V8368046764001d636f6e6e7365727665725f77656271714031302e3133392e372e31363000007d6f00001457036e04008737d4b56d0000000a405038766a6d48545a316d00000028d361bf4f9922d30fa34330007555d6caf1e26554bb3da721ce5a5a6345e64d311b4c3e6eafefaec1
p2
sS'vfwebqq'
p3
Vd361bf4f9922d30fa34330007555d6caf1e26554bb3da721ce5a5a6345e64d311b4c3e6eafefaec1
p4
sS'client_id'
p5
I235184
sS'ptwebqq'
p6
S'cf1d371aaa0778974f0dc3920ee67d3059a680cb3f051818b223da7304951ec1'
p7
s.