(dp0
S'BD_LAST_QID'
p1
S'17473026750928813259'
p2
sS'BDSVRTM'
p3
S'0'
p4
sS'BAIDUID'
p5
S'3513159F6208F2D09687DF8AC05E76F2:FG=1'
p6
sS'H_PS_PSSID'
p7
S'14346_1448_12825_14432_12867_17446_17246_17001_17003_17073_15444_17348_12271_17352_17051'
p8
sS'BIDUPSID'
p9
S'3513159F6208F2D09687DF8AC05E76F2'
p10
sS'__bsi'
p11
S'16891346265009691176_00_14_N_N_5_0301_002F_N_N_N_0'
p12
sS'PSTM'
p13
S'1443369325'
p14
sS'BD_HOME'
p15
g4
s.